; Function Attrs: mustprogress uwtable
define noundef double @_ZNK8QuantLib21AnalyticBarrierEngine1AEd(ptr noundef nonnull align 8 dereferenceable(440) %this, double noundef %phi) local_unnamed_addr #8 align 2 {
entry:
  %process_.i = getelementptr inbounds nuw i8, ptr %this, i64 360
  %0 = load ptr, ptr %process_.i, align 8, !tbaa !39
  %cmp.not.i.i = icmp eq ptr %0, null
  br i1 %cmp.not.i.i, label %cond.false.i.i, label %_ZNK8QuantLib21AnalyticBarrierEngine10underlyingEv.exit, !prof !71

cond.false.i.i:                                   ; preds = %entry
  tail call void @_ZN5boost16assertion_failedEPKcS1_S1_l(ptr noundef nonnull @.str.19, ptr noundef nonnull @__PRETTY_FUNCTION__._ZNK5boost10shared_ptrIN8QuantLib30GeneralizedBlackScholesProcessEEptEv, ptr noundef nonnull @.str.20, i64 noundef 784)
  %.pre.i.i = load ptr, ptr %process_.i, align 8, !tbaa !39
  br label %_ZNK8QuantLib21AnalyticBarrierEngine10underlyingEv.exit

_ZNK8QuantLib21AnalyticBarrierEngine10underlyingEv.exit: ; preds = %entry, %cond.false.i.i
  %1 = phi ptr [ %0, %entry ], [ %.pre.i.i, %cond.false.i.i ]
  %vtable.i = load ptr, ptr %1, align 8, !tbaa !35
  %vfn.i = getelementptr inbounds i8, ptr %vtable.i, i64 120
  %2 = load ptr, ptr %vfn.i, align 8
  %call2.i = tail call noundef double %2(ptr noundef nonnull align 8 dereferenceable(250) %1)
  %call2 = tail call noundef double @_ZNK8QuantLib21AnalyticBarrierEngine6strikeEv(ptr noundef nonnull align 8 dereferenceable(440) %this)
  %div = fdiv double %call2.i, %call2
  %call3 = tail call double @log(double noundef %div) #27, !tbaa !105
  %call4 = tail call noundef double @_ZNK8QuantLib21AnalyticBarrierEngine12stdDeviationEv(ptr noundef nonnull align 8 dereferenceable(440) %this)
  %div5 = fdiv double %call3, %call4
  %call.i.i = tail call noundef double @_ZNK8QuantLib21AnalyticBarrierEngine10volatilityEv(ptr noundef nonnull readonly align 8 dereferenceable(440) %this)
  %call2.i.i = tail call noundef double @_ZNK8QuantLib21AnalyticBarrierEngine12riskFreeRateEv(ptr noundef nonnull readonly align 8 dereferenceable(440) %this)
  %call3.i.i = tail call noundef double @_ZNK8QuantLib21AnalyticBarrierEngine13dividendYieldEv(ptr noundef nonnull readonly align 8 dereferenceable(440) %this)
  %sub.i.i = fsub double %call2.i.i, %call3.i.i
  %mul.i.i = fmul double %call.i.i, %call.i.i
  %div.i.i = fdiv double %sub.i.i, %mul.i.i
  %sub4.i.i = fadd double %div.i.i, -5.000000e-01
  %add.i = fadd double %sub4.i.i, 1.000000e+00
  %call2.i4 = tail call noundef double @_ZNK8QuantLib21AnalyticBarrierEngine12stdDeviationEv(ptr noundef nonnull readonly align 8 dereferenceable(440) %this)
  %mul.i = fmul double %call2.i4, %add.i
  %add = fadd double %div5, %mul.i
  %f_ = getelementptr inbounds nuw i8, ptr %this, i64 376
  %mul = fmul double %phi, %add
  %call7 = tail call noundef double @_ZNK8QuantLib28CumulativeNormalDistributionclEd(ptr noundef nonnull align 8 dereferenceable(57) %f_, double noundef %mul)
  %call9 = tail call noundef double @_ZNK8QuantLib21AnalyticBarrierEngine12stdDeviationEv(ptr noundef nonnull align 8 dereferenceable(440) %this)
  %sub = fsub double %add, %call9
  %mul10 = fmul double %phi, %sub
  %call11 = tail call noundef double @_ZNK8QuantLib28CumulativeNormalDistributionclEd(ptr noundef nonnull align 8 dereferenceable(57) %f_, double noundef %mul10)
  %3 = load ptr, ptr %process_.i, align 8, !tbaa !39
  %cmp.not.i.i6 = icmp eq ptr %3, null
  br i1 %cmp.not.i.i6, label %cond.false.i.i10, label %_ZNK8QuantLib21AnalyticBarrierEngine10underlyingEv.exit12, !prof !71

cond.false.i.i10:                                 ; preds = %_ZNK8QuantLib21AnalyticBarrierEngine10underlyingEv.exit
  tail call void @_ZN5boost16assertion_failedEPKcS1_S1_l(ptr noundef nonnull @.str.19, ptr noundef nonnull @__PRETTY_FUNCTION__._ZNK5boost10shared_ptrIN8QuantLib30GeneralizedBlackScholesProcessEEptEv, ptr noundef nonnull @.str.20, i64 noundef 784)
  %.pre.i.i11 = load ptr, ptr %process_.i, align 8, !tbaa !39
  br label %_ZNK8QuantLib21AnalyticBarrierEngine10underlyingEv.exit12

_ZNK8QuantLib21AnalyticBarrierEngine10underlyingEv.exit12: ; preds = %_ZNK8QuantLib21AnalyticBarrierEngine10underlyingEv.exit, %cond.false.i.i10
  %4 = phi ptr [ %3, %_ZNK8QuantLib21AnalyticBarrierEngine10underlyingEv.exit ], [ %.pre.i.i11, %cond.false.i.i10 ]
  %vtable.i7 = load ptr, ptr %4, align 8, !tbaa !35
  %vfn.i8 = getelementptr inbounds i8, ptr %vtable.i7, i64 120
  %5 = load ptr, ptr %vfn.i8, align 8
  %call2.i9 = tail call noundef double %5(ptr noundef nonnull align 8 dereferenceable(250) %4)
  %call13 = tail call noundef double @_ZNK8QuantLib21AnalyticBarrierEngine16dividendDiscountEv(ptr noundef nonnull align 8 dereferenceable(440) %this)
  %mul14 = fmul double %call2.i9, %call13
  %call16 = tail call noundef double @_ZNK8QuantLib21AnalyticBarrierEngine6strikeEv(ptr noundef nonnull align 8 dereferenceable(440) %this)
  %call17 = tail call noundef double @_ZNK8QuantLib21AnalyticBarrierEngine16riskFreeDiscountEv(ptr noundef nonnull align 8 dereferenceable(440) %this)
  %mul18 = fmul double %call16, %call17
  %6 = fneg double %call11
  %neg = fmul double %mul18, %6
  %7 = tail call double @llvm.fmuladd.f64(double %mul14, double %call7, double %neg)
  %mul20 = fmul double %phi, %7
  ret double %mul20
}